(i__main__
Customer
p0
(dp1
S'info'
p2
NsS'Name'
p3
S'TestUser1'
p4
sS'loantype'
p5
NsS'DOB'
p6
S'12/12/1999'
p7
sS'EMI'
p8
NsS'age'
p9
S'35'
p10
sS'CustomerData'
p11
NsS'job'
p12
NsS'amount'
p13
I0
sS'Address'
p14
S'12, Lwen Street,Delhi'
p15
sS'Phno'
p16
S'9812453634'
p17
sS'Password'
p18
S'password1'
p19
sS'max_loan_amt'
p20
NsS'Email'
p21
S'sh@gmail.com'
p22
sb.