(i__main__
Customer
p0
(dp1
S'info'
p2
NsS'Name'
p3
S'TestUser3'
p4
sS'loantype'
p5
NsS'DOB'
p6
S'10/12/1979'
p7
sS'EMI'
p8
NsS'age'
p9
S'18'
p10
sS'CustomerData'
p11
NsS'job'
p12
NsS'amount'
p13
F0.0
sS'Address'
p14
S'3,Gh road,pakistan'
p15
sS'Phno'
p16
S'9456347834'
p17
sS'Password'
p18
S'password3'
p19
sS'max_loan_amt'
p20
NsS'Email'
p21
S'sbc@gmail.com'
p22
sb.