(i__main__
Customer
p0
(dp1
S'info'
p2
NsS'Name'
p3
S'TestUser5'
p4
sS'loantype'
p5
NsS'DOB'
p6
S'06/08/1969'
p7
sS'EMI'
p8
NsS'age'
p9
S'49'
p10
sS'CustomerData'
p11
NsS'job'
p12
NsS'amount'
p13
F1000.0
sS'Address'
p14
S'31st lane,BlueBerry'
p15
sS'Phno'
p16
S'9567456712'
p17
sS'Password'
p18
S'password5'
p19
sS'max_loan_amt'
p20
NsS'Email'
p21
S'abc@yahoo.mail'
p22
sb.