(i__main__
Customer
p0
(dp1
S'info'
p2
NsS'Name'
p3
S'TestUser2'
p4
sS'loantype'
p5
NsS'DOB'
p6
S'01/12/1968'
p7
sS'EMI'
p8
NsS'age'
p9
S'56'
p10
sS'CustomerData'
p11
NsS'job'
p12
NsS'amount'
p13
I0
sS'Address'
p14
S'56,Olive Street,Bangalore'
p15
sS'Phno'
p16
S'9845671234'
p17
sS'Password'
p18
S'password2'
p19
sS'max_loan_amt'
p20
NsS'Email'
p21
S'qwerds@gmail.com'
p22
sb.